; Function Attrs: nounwind uwtable
define dso_local ptr @acct_storage_g_get_users(ptr noundef %0, i32 noundef %1, ptr noundef %2) local_unnamed_addr #0 {
  %4 = load i32, ptr @plugin_inited, align 4
  %5 = icmp eq i32 %4, 1
  br i1 %5, label %9, label %6

6:                                                ; preds = %3
  %7 = load ptr, ptr getelementptr inbounds nuw (i8, ptr @ops, i64 288), align 8
  %8 = tail call ptr %7(ptr noundef %0, i32 noundef %1, ptr noundef %2) #8
  br label %9

9:                                                ; preds = %3, %6
  %.0 = phi ptr [ %8, %6 ], [ null, %3 ]
  ret ptr %.0
}